; Function Attrs: mustprogress null_pointer_is_valid sspstrong uwtable
define void @_ZN18AdvancedPrefsModelC2EP7QObject(ptr noundef align 8 dereferenceable_or_null(44) %0, ptr noundef %1) unnamed_addr #0 align 2 personality ptr @__gxx_personality_v0 {
  tail call void @_ZN21QSortFilterProxyModelC2EP7QObject(ptr noundef align 8 dereferenceable_or_null(16) %0, ptr noundef %1)
  store ptr getelementptr inbounds nuw inrange(-16, 456) (i8, ptr @_ZTV18AdvancedPrefsModel, i64 16), ptr %0, align 8
  %3 = getelementptr inbounds nuw i8, ptr %0, i64 16
  tail call void @llvm.memset.p0.i64(ptr noundef nonnull align 8 dereferenceable(25) %3, i8 0, i64 25, i1 false)
  %4 = invoke noundef ptr @_ZN12QApplication5styleEv()
          to label %5 unwind label %13

5:                                                ; preds = %2
  %6 = load ptr, ptr %4, align 8
  %7 = getelementptr inbounds nuw i8, ptr %6, i64 240
  %8 = load ptr, ptr %7, align 8
  %9 = invoke noundef i32 %8(ptr noundef align 8 dereferenceable_or_null(16) %4, i32 noundef 35, ptr noundef null, ptr noundef null, ptr noundef null)
          to label %10 unwind label %13

10:                                               ; preds = %5
  %11 = getelementptr inbounds nuw i8, ptr %0, i64 42
  %12 = trunc i32 %9 to i16
  store i16 %12, ptr %11, align 2
  ret void

13:                                               ; preds = %5, %2
  %14 = landingpad { ptr, i32 }
          cleanup
  tail call void @_ZN7QStringD2Ev(ptr noundef nonnull align 8 dereferenceable_or_null(24) %3) #26
  tail call void @_ZN21QSortFilterProxyModelD2Ev(ptr noundef align 8 dereferenceable_or_null(16) %0) #26
  resume { ptr, i32 } %14
}